Certificate:
    Data:
        Version: 3 (0x2)
        Serial Number: 44 (0x2c)
    Signature Algorithm: sha256WithRSAEncryption
        Issuer: C=DE, ST=BW, L=Eggenstein, O=Nanomatch, OU=IT, CN=nanomatch/emailAddress=Timo.Strunk@nanomatch.com
        Validity
            Not Before: Mar 31 13:35:59 2015 GMT
            Not After : Mar 28 13:35:59 2025 GMT
        Subject: C=DE, ST=BW, CN=flo_test/emailAddress=florian.muenchbach@student.kit.edu
        Subject Public Key Info:
            Public Key Algorithm: rsaEncryption
                Public-Key: (2048 bit)
                Modulus:
                    00:c9:11:76:82:6f:56:f8:85:77:c0:46:29:ab:24:
                    49:6c:39:5f:7b:77:23:a6:04:44:6a:8b:bc:d7:06:
                    b0:17:30:d3:9a:c1:2f:e5:79:06:ac:19:bc:1b:eb:
                    1c:6f:df:bf:84:38:84:8a:23:01:4e:a4:44:1d:3a:
                    ae:64:6d:8f:2c:cd:2e:3e:69:ca:3a:35:e4:86:13:
                    e1:6d:12:d9:26:0a:27:5c:b4:d7:54:a2:2b:67:07:
                    0e:f1:70:fd:02:c2:57:dd:47:04:bd:09:4b:51:36:
                    7c:83:57:8c:c2:ad:84:ff:a7:3b:fc:41:0d:b7:51:
                    12:e1:8b:0f:ac:5b:ba:fc:01:62:57:27:11:79:f5:
                    42:63:8b:79:a5:19:bb:ce:35:40:33:95:99:72:80:
                    da:69:06:b1:45:f4:f5:fd:95:2e:9d:89:b7:9b:98:
                    e6:eb:df:8a:4a:a9:47:82:3c:27:35:fa:6a:72:f0:
                    a2:a9:02:4d:26:3f:36:23:f0:ee:66:e9:3f:98:24:
                    d2:6a:16:e3:39:5a:d5:b1:20:1c:0b:a9:4b:b1:c5:
                    5e:6d:97:bd:a4:50:80:9a:07:c5:2e:ac:8f:17:fc:
                    54:03:7e:b1:e0:58:18:ef:f4:7e:13:fc:f2:58:67:
                    ce:31:e4:7b:a2:4e:a1:ca:f2:12:a5:78:9e:42:c8:
                    c4:4d
                Exponent: 65537 (0x10001)
        X509v3 extensions:
            X509v3 Basic Constraints: 
                CA:FALSE
            Netscape Comment: 
                OpenSSL Generated Certificate
            X509v3 Subject Key Identifier: 
                32:05:64:09:94:43:2B:81:6B:EC:26:09:B0:CC:C5:CD:B3:5C:22:68
            X509v3 Authority Key Identifier: 
                keyid:B7:0F:CC:E2:40:5D:04:39:89:E4:F0:F8:2B:07:43:90:65:09:44:E7

    Signature Algorithm: sha256WithRSAEncryption
         92:bf:82:31:43:56:d0:f5:be:24:64:d0:f5:8d:ba:64:62:6a:
         6d:f6:ab:84:e4:32:34:68:8a:da:b7:96:1b:80:55:c5:65:fb:
         55:64:85:ac:20:8c:30:47:77:19:d3:d4:63:83:51:c1:83:6b:
         24:af:20:15:73:6a:bf:33:62:c8:3e:fe:9b:7e:00:60:ad:77:
         36:4c:77:af:2a:e5:22:34:95:d5:d7:7b:65:e5:78:3d:52:1e:
         3f:3a:ac:b8:44:33:ac:18:c5:2f:e5:6b:de:97:cf:c5:3f:61:
         1f:25:fa:28:07:27:8d:bf:bd:f6:8d:e0:b0:68:db:11:20:ac:
         2a:e6
-----BEGIN CERTIFICATE-----
MIIDZDCCAs2gAwIBAgIBLDANBgkqhkiG9w0BAQsFADCBjjELMAkGA1UEBhMCREUx
CzAJBgNVBAgMAkJXMRMwEQYDVQQHDApFZ2dlbnN0ZWluMRIwEAYDVQQKDAlOYW5v
bWF0Y2gxCzAJBgNVBAsMAklUMRIwEAYDVQQDDAluYW5vbWF0Y2gxKDAmBgkqhkiG
9w0BCQEWGVRpbW8uU3RydW5rQG5hbm9tYXRjaC5jb20wHhcNMTUwMzMxMTMzNTU5
WhcNMjUwMzI4MTMzNTU5WjBgMQswCQYDVQQGEwJERTELMAkGA1UECAwCQlcxETAP
BgNVBAMMCGZsb190ZXN0MTEwLwYJKoZIhvcNAQkBFiJmbG9yaWFuLm11ZW5jaGJh
Y2hAc3R1ZGVudC5raXQuZWR1MIIBIjANBgkqhkiG9w0BAQEFAAOCAQ8AMIIBCgKC
AQEAyRF2gm9W+IV3wEYpqyRJbDlfe3cjpgREaou81wawFzDTmsEv5XkGrBm8G+sc
b9+/hDiEiiMBTqREHTquZG2PLM0uPmnKOjXkhhPhbRLZJgonXLTXVKIrZwcO8XD9
AsJX3UcEvQlLUTZ8g1eMwq2E/6c7/EENt1ES4YsPrFu6/AFiVycRefVCY4t5pRm7
zjVAM5WZcoDaaQaxRfT1/ZUunYm3m5jm69+KSqlHgjwnNfpqcvCiqQJNJj82I/Du
Zuk/mCTSahbjOVrVsSAcC6lLscVebZe9pFCAmgfFLqyPF/xUA36x4FgY7/R+E/zy
WGfOMeR7ok6hyvISpXieQsjETQIDAQABo3sweTAJBgNVHRMEAjAAMCwGCWCGSAGG
+EIBDQQfFh1PcGVuU1NMIEdlbmVyYXRlZCBDZXJ0aWZpY2F0ZTAdBgNVHQ4EFgQU
MgVkCZRDK4Fr7CYJsMzFzbNcImgwHwYDVR0jBBgwFoAUtw/M4kBdBDmJ5PD4KwdD
kGUJROcwDQYJKoZIhvcNAQELBQADgYEAkr+CMUNW0PW+JGTQ9Y26ZGJqbfarhOQy
NGiK2reWG4BVxWX7VWSFrCCMMEd3GdPUY4NRwYNrJK8gFXNqvzNiyD7+m34AYK13
Nkx3ryrlIjSV1dd7ZeV4PVIePzqsuEQzrBjFL+Vr3pfPxT9hHyX6KAcnjb+99o3g
sGjbESCsKuY=
-----END CERTIFICATE-----
